; Function Attrs: nofree norecurse nosync nounwind memory(argmem: readwrite) uwtable
define internal void @pred16x16_horizontal_add_8_c(ptr noundef captures(none) %0, ptr noundef readonly captures(none) %1, ptr noundef captures(none) %2, i64 noundef %3) #3 {
  br label %5

5:                                                ; preds = %4, %pred4x4_horizontal_add_8_c.exit
  %indvars.iv = phi i64 [ 0, %4 ], [ %indvars.iv.next, %pred4x4_horizontal_add_8_c.exit ]
  %6 = getelementptr inbounds nuw i32, ptr %1, i64 %indvars.iv
  %7 = load i32, ptr %6, align 4, !tbaa !56
  %8 = sext i32 %7 to i64
  %9 = getelementptr inbounds i8, ptr %0, i64 %8
  %.idx = shl nuw nsw i64 %indvars.iv, 5
  %10 = getelementptr inbounds nuw i8, ptr %2, i64 %.idx
  br label %11

11:                                               ; preds = %11, %5
  %.025.i = phi ptr [ %10, %5 ], [ %33, %11 ]
  %.02124.i = phi ptr [ %9, %5 ], [ %32, %11 ]
  %.02223.i = phi i32 [ 0, %5 ], [ %34, %11 ]
  %12 = getelementptr inbounds i8, ptr %.02124.i, i64 -1
  %13 = load i8, ptr %12, align 1, !tbaa !8
  %14 = load i16, ptr %.025.i, align 2, !tbaa !9
  %15 = trunc i16 %14 to i8
  %16 = add i8 %13, %15
  store i8 %16, ptr %.02124.i, align 1, !tbaa !8
  %17 = getelementptr inbounds nuw i8, ptr %.025.i, i64 2
  %18 = load i16, ptr %17, align 2, !tbaa !9
  %19 = trunc i16 %18 to i8
  %20 = add i8 %16, %19
  %21 = getelementptr inbounds nuw i8, ptr %.02124.i, i64 1
  store i8 %20, ptr %21, align 1, !tbaa !8
  %22 = getelementptr inbounds nuw i8, ptr %.025.i, i64 4
  %23 = load i16, ptr %22, align 2, !tbaa !9
  %24 = trunc i16 %23 to i8
  %25 = add i8 %20, %24
  %26 = getelementptr inbounds nuw i8, ptr %.02124.i, i64 2
  store i8 %25, ptr %26, align 1, !tbaa !8
  %27 = getelementptr inbounds nuw i8, ptr %.025.i, i64 6
  %28 = load i16, ptr %27, align 2, !tbaa !9
  %29 = trunc i16 %28 to i8
  %30 = add i8 %25, %29
  %31 = getelementptr inbounds nuw i8, ptr %.02124.i, i64 3
  store i8 %30, ptr %31, align 1, !tbaa !8
  %32 = getelementptr inbounds i8, ptr %.02124.i, i64 %3
  %33 = getelementptr inbounds nuw i8, ptr %.025.i, i64 8
  %34 = add nuw nsw i32 %.02223.i, 1
  %exitcond.not.i = icmp eq i32 %34, 4
  br i1 %exitcond.not.i, label %pred4x4_horizontal_add_8_c.exit, label %11, !llvm.loop !295

pred4x4_horizontal_add_8_c.exit:                  ; preds = %11
  tail call void @llvm.memset.p0.i64(ptr noundef nonnull align 2 dereferenceable(32) %10, i8 0, i64 32, i1 false)
  %indvars.iv.next = add nuw nsw i64 %indvars.iv, 1
  %exitcond.not = icmp eq i64 %indvars.iv.next, 16
  br i1 %exitcond.not, label %35, label %5, !llvm.loop !307

35:                                               ; preds = %pred4x4_horizontal_add_8_c.exit
  ret void
}